target datalayout = "e-m:e-p270:32:32-p271:32:32-p272:64:64-i64:64-i128:128-f80:128-n8:16:32:64-S128"
target triple = "x86_64-pc-linux-gnu"

%"class.zmq::dist_t" = type <{ %"class.zmq::array_t", i64, i64, i64, i8, [7 x i8] }>
%"class.zmq::array_t" = type { %"class.std::vector" }
%"class.std::vector" = type { %"struct.std::_Vector_base" }
%"struct.std::_Vector_base" = type { %"struct.std::_Vector_base<zmq::pipe_t *, std::allocator<zmq::pipe_t *>>::_Vector_impl" }
%"struct.std::_Vector_base<zmq::pipe_t *, std::allocator<zmq::pipe_t *>>::_Vector_impl" = type { %"struct.std::_Vector_base<zmq::pipe_t *, std::allocator<zmq::pipe_t *>>::_Vector_impl_data" }
%"struct.std::_Vector_base<zmq::pipe_t *, std::allocator<zmq::pipe_t *>>::_Vector_impl_data" = type { ptr, ptr, ptr }

@stderr = external global ptr, align 8
@.str.2 = private unnamed_addr constant [104 x i8] c"generated/home/dtcxzyw/WorkSpace/Projects/compilers/llvm-opt-benchmark/bench/libzmq/libzmq/src/dist.cpp\00", align 1
@.str.3 = private unnamed_addr constant [12 x i8] c"%s (%s:%d)\0A\00", align 1

; Function Attrs: mustprogress nounwind uwtable
define linkonce_odr noundef nonnull align 8 dereferenceable(8) ptr @_ZNSt6vectorIPN3zmq6pipe_tESaIS2_EEixEm(ptr noundef nonnull align 8 dereferenceable(24) %0, i64 noundef %1) #0 comdat align 2 {
  %3 = alloca ptr, align 8
  %4 = alloca i64, align 8
  store ptr %0, ptr %3, align 8, !tbaa !43
  store i64 %1, ptr %4, align 8, !tbaa !30
  %5 = load ptr, ptr %3, align 8
  %6 = getelementptr inbounds nuw %"struct.std::_Vector_base", ptr %5, i32 0, i32 0
  %7 = getelementptr inbounds nuw %"struct.std::_Vector_base<zmq::pipe_t *, std::allocator<zmq::pipe_t *>>::_Vector_impl_data", ptr %6, i32 0, i32 0
  %8 = load ptr, ptr %7, align 8, !tbaa !53
  %9 = load i64, ptr %4, align 8, !tbaa !30
  %10 = getelementptr inbounds nuw ptr, ptr %8, i64 %9
  ret ptr %10
}

; Function Attrs: mustprogress nounwind uwtable
define linkonce_odr noundef nonnull align 8 dereferenceable(8) ptr @_ZN3zmq7array_tINS_6pipe_tELi2EEixEm(ptr noundef nonnull align 8 dereferenceable(24) %0, i64 noundef %1) #0 comdat align 2 {
  %3 = alloca ptr, align 8
  %4 = alloca i64, align 8
  store ptr %0, ptr %3, align 8, !tbaa !22
  store i64 %1, ptr %4, align 8, !tbaa !30
  %5 = load ptr, ptr %3, align 8
  %6 = getelementptr inbounds nuw %"class.zmq::array_t", ptr %5, i32 0, i32 0
  %7 = load i64, ptr %4, align 8, !tbaa !30
  %8 = call noundef nonnull align 8 dereferenceable(8) ptr @_ZNSt6vectorIPN3zmq6pipe_tESaIS2_EEixEm(ptr noundef nonnull align 8 dereferenceable(24) %6, i64 noundef %7) #14
  ret ptr %8
}

; Function Attrs: mustprogress uwtable
define void @_ZN3zmq6dist_t10distributeEPNS_5msg_tE(ptr noundef nonnull align 8 dereferenceable(49) %0, ptr noundef %1) #6 align 2 {
  %3 = alloca ptr, align 8
  %4 = alloca ptr, align 8
  %5 = alloca i32, align 4
  %6 = alloca ptr, align 8
  %7 = alloca ptr, align 8
  %8 = alloca i64, align 8
  %9 = alloca i32, align 4
  %10 = alloca ptr, align 8
  %11 = alloca i32, align 4
  %12 = alloca i64, align 8
  %13 = alloca i32, align 4
  %14 = alloca ptr, align 8
  store ptr %0, ptr %3, align 8, !tbaa !3
  store ptr %1, ptr %4, align 8, !tbaa !33
  %15 = load ptr, ptr %3, align 8
  %16 = getelementptr inbounds nuw %"class.zmq::dist_t", ptr %15, i32 0, i32 1
  %17 = load i64, ptr %16, align 8, !tbaa !8
  %18 = icmp eq i64 %17, 0
  br i1 %18, label %19, label %64

19:                                               ; preds = %2
  call void @llvm.lifetime.start.p0(i64 4, ptr %5) #14
  %20 = load ptr, ptr %4, align 8, !tbaa !33
  %21 = call noundef i32 @_ZN3zmq5msg_t5closeEv(ptr noundef nonnull align 8 dereferenceable(64) %20)
  store i32 %21, ptr %5, align 4, !tbaa !36
  br label %22

22:                                               ; preds = %19
  %23 = load i32, ptr %5, align 4, !tbaa !36
  %24 = icmp eq i32 %23, 0
  %25 = xor i1 %24, true
  %26 = zext i1 %25 to i64
  %27 = call i64 @llvm.expect.i64(i64 %26, i64 0)
  %28 = icmp ne i64 %27, 0
  br i1 %28, label %29, label %39

29:                                               ; preds = %22
  call void @llvm.lifetime.start.p0(i64 8, ptr %6) #14
  %30 = call ptr @__errno_location() #16
  %31 = load i32, ptr %30, align 4, !tbaa !36
  %32 = call ptr @strerror(i32 noundef %31) #14
  store ptr %32, ptr %6, align 8, !tbaa !38
  %33 = load ptr, ptr @stderr, align 8, !tbaa !24
  %34 = load ptr, ptr %6, align 8, !tbaa !38
  %35 = call i32 (ptr, ptr, ...) @fprintf(ptr noundef %33, ptr noundef @.str.3, ptr noundef %34, ptr noundef @.str.2, i32 noundef 149) #14
  %36 = load ptr, ptr @stderr, align 8, !tbaa !24
  %37 = call i32 @fflush(ptr noundef %36)
  %38 = load ptr, ptr %6, align 8, !tbaa !38
  call void @_ZN3zmq9zmq_abortEPKc(ptr noundef %38)
  call void @llvm.lifetime.end.p0(i64 8, ptr %6) #14
  br label %39

39:                                               ; preds = %29, %22
  br label %40

40:                                               ; preds = %39
  br label %41

41:                                               ; preds = %40
  %42 = load ptr, ptr %4, align 8, !tbaa !33
  %43 = call noundef i32 @_ZN3zmq5msg_t4initEv(ptr noundef nonnull align 8 dereferenceable(64) %42)
  store i32 %43, ptr %5, align 4, !tbaa !36
  br label %44

44:                                               ; preds = %41
  %45 = load i32, ptr %5, align 4, !tbaa !36
  %46 = icmp eq i32 %45, 0
  %47 = xor i1 %46, true
  %48 = zext i1 %47 to i64
  %49 = call i64 @llvm.expect.i64(i64 %48, i64 0)
  %50 = icmp ne i64 %49, 0
  br i1 %50, label %51, label %61

51:                                               ; preds = %44
  call void @llvm.lifetime.start.p0(i64 8, ptr %7) #14
  %52 = call ptr @__errno_location() #16
  %53 = load i32, ptr %52, align 4, !tbaa !36
  %54 = call ptr @strerror(i32 noundef %53) #14
  store ptr %54, ptr %7, align 8, !tbaa !38
  %55 = load ptr, ptr @stderr, align 8, !tbaa !24
  %56 = load ptr, ptr %7, align 8, !tbaa !38
  %57 = call i32 (ptr, ptr, ...) @fprintf(ptr noundef %55, ptr noundef @.str.3, ptr noundef %56, ptr noundef @.str.2, i32 noundef 151) #14
  %58 = load ptr, ptr @stderr, align 8, !tbaa !24
  %59 = call i32 @fflush(ptr noundef %58)
  %60 = load ptr, ptr %7, align 8, !tbaa !38
  call void @_ZN3zmq9zmq_abortEPKc(ptr noundef %60)
  call void @llvm.lifetime.end.p0(i64 8, ptr %7) #14
  br label %61

61:                                               ; preds = %51, %44
  br label %62

62:                                               ; preds = %61
  br label %63

63:                                               ; preds = %62
  call void @llvm.lifetime.end.p0(i64 4, ptr %5) #14
  br label %167

64:                                               ; preds = %2
  %65 = load ptr, ptr %4, align 8, !tbaa !33
  %66 = call noundef zeroext i1 @_ZNK3zmq5msg_t6is_vsmEv(ptr noundef nonnull align 8 dereferenceable(64) %65)
  br i1 %66, label %67, label %109

67:                                               ; preds = %64
  call void @llvm.lifetime.start.p0(i64 8, ptr %8) #14
  store i64 0, ptr %8, align 8, !tbaa !30
  br label %68

68:                                               ; preds = %85, %67
  %69 = load i64, ptr %8, align 8, !tbaa !30
  %70 = getelementptr inbounds nuw %"class.zmq::dist_t", ptr %15, i32 0, i32 1
  %71 = load i64, ptr %70, align 8, !tbaa !8
  %72 = icmp ult i64 %69, %71
  br i1 %72, label %74, label %73

73:                                               ; preds = %68
  call void @llvm.lifetime.end.p0(i64 8, ptr %8) #14
  br label %86

74:                                               ; preds = %68
  %75 = getelementptr inbounds nuw %"class.zmq::dist_t", ptr %15, i32 0, i32 0
  %76 = load i64, ptr %8, align 8, !tbaa !30
  %77 = call noundef nonnull align 8 dereferenceable(8) ptr @_ZN3zmq7array_tINS_6pipe_tELi2EEixEm(ptr noundef nonnull align 8 dereferenceable(24) %75, i64 noundef %76)
  %78 = load ptr, ptr %77, align 8, !tbaa !26
  %79 = load ptr, ptr %4, align 8, !tbaa !33
  %80 = call noundef zeroext i1 @_ZN3zmq6dist_t5writeEPNS_6pipe_tEPNS_5msg_tE(ptr noundef nonnull align 8 dereferenceable(49) %15, ptr noundef %78, ptr noundef %79)
  br i1 %80, label %82, label %81

81:                                               ; preds = %74
  br label %85

82:                                               ; preds = %74
  %83 = load i64, ptr %8, align 8, !tbaa !30
  %84 = add i64 %83, 1
  store i64 %84, ptr %8, align 8, !tbaa !30
  br label %85

85:                                               ; preds = %82, %81
  br label %68, !llvm.loop !40

86:                                               ; preds = %73
  call void @llvm.lifetime.start.p0(i64 4, ptr %9) #14
  %87 = load ptr, ptr %4, align 8, !tbaa !33
  %88 = call noundef i32 @_ZN3zmq5msg_t4initEv(ptr noundef nonnull align 8 dereferenceable(64) %87)
  store i32 %88, ptr %9, align 4, !tbaa !36
  br label %89

89:                                               ; preds = %86
  %90 = load i32, ptr %9, align 4, !tbaa !36
  %91 = icmp eq i32 %90, 0
  %92 = xor i1 %91, true
  %93 = zext i1 %92 to i64
  %94 = call i64 @llvm.expect.i64(i64 %93, i64 0)
  %95 = icmp ne i64 %94, 0
  br i1 %95, label %96, label %106

96:                                               ; preds = %89
  call void @llvm.lifetime.start.p0(i64 8, ptr %10) #14
  %97 = call ptr @__errno_location() #16
  %98 = load i32, ptr %97, align 4, !tbaa !36
  %99 = call ptr @strerror(i32 noundef %98) #14
  store ptr %99, ptr %10, align 8, !tbaa !38
  %100 = load ptr, ptr @stderr, align 8, !tbaa !24
  %101 = load ptr, ptr %10, align 8, !tbaa !38
  %102 = call i32 (ptr, ptr, ...) @fprintf(ptr noundef %100, ptr noundef @.str.3, ptr noundef %101, ptr noundef @.str.2, i32 noundef 164) #14
  %103 = load ptr, ptr @stderr, align 8, !tbaa !24
  %104 = call i32 @fflush(ptr noundef %103)
  %105 = load ptr, ptr %10, align 8, !tbaa !38
  call void @_ZN3zmq9zmq_abortEPKc(ptr noundef %105)
  call void @llvm.lifetime.end.p0(i64 8, ptr %10) #14
  br label %106

106:                                              ; preds = %96, %89
  br label %107

107:                                              ; preds = %106
  br label %108

108:                                              ; preds = %107
  call void @llvm.lifetime.end.p0(i64 4, ptr %9) #14
  br label %167

109:                                              ; preds = %64
  %110 = load ptr, ptr %4, align 8, !tbaa !33
  %111 = getelementptr inbounds nuw %"class.zmq::dist_t", ptr %15, i32 0, i32 1
  %112 = load i64, ptr %111, align 8, !tbaa !8
  %113 = trunc i64 %112 to i32
  %114 = sub nsw i32 %113, 1
  call void @_ZN3zmq5msg_t8add_refsEi(ptr noundef nonnull align 8 dereferenceable(64) %110, i32 noundef %114)
  call void @llvm.lifetime.start.p0(i64 4, ptr %11) #14
  store i32 0, ptr %11, align 4, !tbaa !36
  call void @llvm.lifetime.start.p0(i64 8, ptr %12) #14
  store i64 0, ptr %12, align 8, !tbaa !30
  br label %115

115:                                              ; preds = %134, %109
  %116 = load i64, ptr %12, align 8, !tbaa !30
  %117 = getelementptr inbounds nuw %"class.zmq::dist_t", ptr %15, i32 0, i32 1
  %118 = load i64, ptr %117, align 8, !tbaa !8
  %119 = icmp ult i64 %116, %118
  br i1 %119, label %121, label %120

120:                                              ; preds = %115
  call void @llvm.lifetime.end.p0(i64 8, ptr %12) #14
  br label %135

121:                                              ; preds = %115
  %122 = getelementptr inbounds nuw %"class.zmq::dist_t", ptr %15, i32 0, i32 0
  %123 = load i64, ptr %12, align 8, !tbaa !30
  %124 = call noundef nonnull align 8 dereferenceable(8) ptr @_ZN3zmq7array_tINS_6pipe_tELi2EEixEm(ptr noundef nonnull align 8 dereferenceable(24) %122, i64 noundef %123)
  %125 = load ptr, ptr %124, align 8, !tbaa !26
  %126 = load ptr, ptr %4, align 8, !tbaa !33
  %127 = call noundef zeroext i1 @_ZN3zmq6dist_t5writeEPNS_6pipe_tEPNS_5msg_tE(ptr noundef nonnull align 8 dereferenceable(49) %15, ptr noundef %125, ptr noundef %126)
  br i1 %127, label %131, label %128

128:                                              ; preds = %121
  %129 = load i32, ptr %11, align 4, !tbaa !36
  %130 = add nsw i32 %129, 1
  store i32 %130, ptr %11, align 4, !tbaa !36
  br label %134

131:                                              ; preds = %121
  %132 = load i64, ptr %12, align 8, !tbaa !30
  %133 = add i64 %132, 1
  store i64 %133, ptr %12, align 8, !tbaa !30
  br label %134

134:                                              ; preds = %131, %128
  br label %115, !llvm.loop !41

135:                                              ; preds = %120
  %136 = load i32, ptr %11, align 4, !tbaa !36
  %137 = sext i32 %136 to i64
  %138 = call i64 @llvm.expect.i64(i64 %137, i64 0)
  %139 = icmp ne i64 %138, 0
  br i1 %139, label %140, label %144

140:                                              ; preds = %135
  %141 = load ptr, ptr %4, align 8, !tbaa !33
  %142 = load i32, ptr %11, align 4, !tbaa !36
  %143 = call noundef zeroext i1 @_ZN3zmq5msg_t7rm_refsEi(ptr noundef nonnull align 8 dereferenceable(64) %141, i32 noundef %142)
  br label %144

144:                                              ; preds = %140, %135
  call void @llvm.lifetime.start.p0(i64 4, ptr %13) #14
  %145 = load ptr, ptr %4, align 8, !tbaa !33
  %146 = call noundef i32 @_ZN3zmq5msg_t4initEv(ptr noundef nonnull align 8 dereferenceable(64) %145)
  store i32 %146, ptr %13, align 4, !tbaa !36
  br label %147

147:                                              ; preds = %144
  %148 = load i32, ptr %13, align 4, !tbaa !36
  %149 = icmp eq i32 %148, 0
  %150 = xor i1 %149, true
  %151 = zext i1 %150 to i64
  %152 = call i64 @llvm.expect.i64(i64 %151, i64 0)
  %153 = icmp ne i64 %152, 0
  br i1 %153, label %154, label %164

154:                                              ; preds = %147
  call void @llvm.lifetime.start.p0(i64 8, ptr %14) #14
  %155 = call ptr @__errno_location() #16
  %156 = load i32, ptr %155, align 4, !tbaa !36
  %157 = call ptr @strerror(i32 noundef %156) #14
  store ptr %157, ptr %14, align 8, !tbaa !38
  %158 = load ptr, ptr @stderr, align 8, !tbaa !24
  %159 = load ptr, ptr %14, align 8, !tbaa !38
  %160 = call i32 (ptr, ptr, ...) @fprintf(ptr noundef %158, ptr noundef @.str.3, ptr noundef %159, ptr noundef @.str.2, i32 noundef 188) #14
  %161 = load ptr, ptr @stderr, align 8, !tbaa !24
  %162 = call i32 @fflush(ptr noundef %161)
  %163 = load ptr, ptr %14, align 8, !tbaa !38
  call void @_ZN3zmq9zmq_abortEPKc(ptr noundef %163)
  call void @llvm.lifetime.end.p0(i64 8, ptr %14) #14
  br label %164

164:                                              ; preds = %154, %147
  br label %165

165:                                              ; preds = %164
  br label %166

166:                                              ; preds = %165
  call void @llvm.lifetime.end.p0(i64 4, ptr %13) #14
  call void @llvm.lifetime.end.p0(i64 4, ptr %11) #14
  br label %167

167:                                              ; preds = %166, %108, %63
  ret void
}