; Function Attrs: mustprogress uwtable
define void @_ZN3zmq6dist_t10distributeEPNS_5msg_tE(ptr noundef nonnull align 8 captures(none) dereferenceable(49) %0, ptr noundef %1) local_unnamed_addr #6 align 2 {
  %3 = getelementptr inbounds nuw i8, ptr %0, i64 24
  %4 = load i64, ptr %3, align 8, !tbaa !33
  %5 = icmp eq i64 %4, 0
  br i1 %5, label %6, label %18

6:                                                ; preds = %2
  %7 = tail call noundef i32 @_ZN3zmq5msg_t5closeEv(ptr noundef nonnull align 8 dereferenceable(64) %1)
  %.not36 = icmp eq i32 %7, 0
  br i1 %.not36, label %16, label %8, !prof !9

8:                                                ; preds = %6
  %9 = tail call ptr @__errno_location() #26
  %10 = load i32, ptr %9, align 4, !tbaa !36
  %11 = tail call ptr @strerror(i32 noundef %10) #23
  %12 = load ptr, ptr @stderr, align 8, !tbaa !10
  %13 = tail call i32 (ptr, ptr, ...) @fprintf(ptr noundef %12, ptr noundef nonnull @.str.3, ptr noundef %11, ptr noundef nonnull @.str.2, i32 noundef 149) #20
  %14 = load ptr, ptr @stderr, align 8, !tbaa !10
  %15 = tail call i32 @fflush(ptr noundef %14)
  tail call void @_ZN3zmq9zmq_abortEPKc(ptr noundef %11)
  br label %16

16:                                               ; preds = %8, %6
  %17 = tail call noundef i32 @_ZN3zmq5msg_t4initEv(ptr noundef nonnull align 8 dereferenceable(64) %1)
  %.not37 = icmp eq i32 %17, 0
  br i1 %.not37, label %51, label %.sink.split, !prof !9

18:                                               ; preds = %2
  %19 = tail call noundef zeroext i1 @_ZNK3zmq5msg_t6is_vsmEv(ptr noundef nonnull align 8 dereferenceable(64) %1)
  %20 = load i64, ptr %3, align 8, !tbaa !33
  br i1 %19, label %.preheader, label %29

.preheader:                                       ; preds = %18
  %.not44 = icmp eq i64 %20, 0
  br i1 %.not44, label %._crit_edge42, label %.lr.ph41

._crit_edge42:                                    ; preds = %.lr.ph41, %.preheader
  %21 = tail call noundef i32 @_ZN3zmq5msg_t4initEv(ptr noundef nonnull align 8 dereferenceable(64) %1)
  %.not35 = icmp eq i32 %21, 0
  br i1 %.not35, label %51, label %.sink.split, !prof !9

.lr.ph41:                                         ; preds = %.preheader, %.lr.ph41
  %.040 = phi i64 [ %spec.select, %.lr.ph41 ], [ 0, %.preheader ]
  %22 = load ptr, ptr %0, align 8, !tbaa !12
  %23 = getelementptr inbounds nuw ptr, ptr %22, i64 %.040
  %24 = load ptr, ptr %23, align 8, !tbaa !29
  %25 = tail call noundef zeroext i1 @_ZN3zmq6dist_t5writeEPNS_6pipe_tEPNS_5msg_tE(ptr noundef nonnull align 8 dereferenceable(49) %0, ptr noundef %24, ptr noundef nonnull %1)
  %26 = zext i1 %25 to i64
  %spec.select = add nuw i64 %.040, %26
  %27 = load i64, ptr %3, align 8, !tbaa !33
  %28 = icmp ult i64 %spec.select, %27
  br i1 %28, label %.lr.ph41, label %._crit_edge42, !llvm.loop !37

29:                                               ; preds = %18
  %30 = trunc i64 %20 to i32
  %31 = add nsw i32 %30, -1
  tail call void @_ZN3zmq5msg_t8add_refsEi(ptr noundef nonnull align 8 dereferenceable(64) %1, i32 noundef %31)
  %32 = load i64, ptr %3, align 8, !tbaa !33
  %.not43 = icmp eq i64 %32, 0
  br i1 %.not43, label %._crit_edge.thread, label %.lr.ph

._crit_edge:                                      ; preds = %.lr.ph
  %.not = icmp eq i32 %.133, 0
  br i1 %.not, label %._crit_edge.thread, label %41, !prof !38

.lr.ph:                                           ; preds = %29, %.lr.ph
  %.03039 = phi i64 [ %.131, %.lr.ph ], [ 0, %29 ]
  %.03238 = phi i32 [ %.133, %.lr.ph ], [ 0, %29 ]
  %33 = load ptr, ptr %0, align 8, !tbaa !12
  %34 = getelementptr inbounds nuw ptr, ptr %33, i64 %.03039
  %35 = load ptr, ptr %34, align 8, !tbaa !29
  %36 = tail call noundef zeroext i1 @_ZN3zmq6dist_t5writeEPNS_6pipe_tEPNS_5msg_tE(ptr noundef nonnull align 8 dereferenceable(49) %0, ptr noundef %35, ptr noundef nonnull %1)
  %not. = xor i1 %36, true
  %37 = zext i1 %not. to i32
  %.133 = add nuw nsw i32 %.03238, %37
  %38 = zext i1 %36 to i64
  %.131 = add nuw i64 %.03039, %38
  %39 = load i64, ptr %3, align 8, !tbaa !33
  %40 = icmp ult i64 %.131, %39
  br i1 %40, label %.lr.ph, label %._crit_edge, !llvm.loop !39

41:                                               ; preds = %._crit_edge
  %42 = tail call noundef zeroext i1 @_ZN3zmq5msg_t7rm_refsEi(ptr noundef nonnull align 8 dereferenceable(64) %1, i32 noundef %.133)
  br label %._crit_edge.thread

._crit_edge.thread:                               ; preds = %29, %41, %._crit_edge
  %43 = tail call noundef i32 @_ZN3zmq5msg_t4initEv(ptr noundef nonnull align 8 dereferenceable(64) %1)
  %.not34 = icmp eq i32 %43, 0
  br i1 %.not34, label %51, label %.sink.split, !prof !9

.sink.split:                                      ; preds = %._crit_edge.thread, %._crit_edge42, %16
  %.sink50 = phi i32 [ 151, %16 ], [ 164, %._crit_edge42 ], [ 188, %._crit_edge.thread ]
  %44 = tail call ptr @__errno_location() #26
  %45 = load i32, ptr %44, align 4, !tbaa !36
  %46 = tail call ptr @strerror(i32 noundef %45) #23
  %47 = load ptr, ptr @stderr, align 8, !tbaa !10
  %48 = tail call i32 (ptr, ptr, ...) @fprintf(ptr noundef %47, ptr noundef nonnull @.str.3, ptr noundef %46, ptr noundef nonnull @.str.2, i32 noundef %.sink50) #20
  %49 = load ptr, ptr @stderr, align 8, !tbaa !10
  %50 = tail call i32 @fflush(ptr noundef %49)
  tail call void @_ZN3zmq9zmq_abortEPKc(ptr noundef %46)
  br label %51

51:                                               ; preds = %.sink.split, %._crit_edge.thread, %._crit_edge42, %16
  ret void
}